; ModuleID = '5/212.c'
source_filename = "5/212.c"
target datalayout = "e-m:e-p270:32:32-p271:32:32-p272:64:64-i64:64-f80:128-n8:16:32:64-S128"
target triple = "x86_64-pc-linux-gnu"

@.str = private unnamed_addr constant [4 x i8] c"%lf\00", align 1
@.str.1 = private unnamed_addr constant [6 x i8] c"%s\0A%s\00", align 1
@.str.2 = private unnamed_addr constant [6 x i8] c"error\00", align 1
@.str.3 = private unnamed_addr constant [4 x i8] c"yes\00", align 1
@.str.4 = private unnamed_addr constant [3 x i8] c"no\00", align 1

; Function Attrs: noinline nounwind uwtable
define dso_local i32 @main() #0 {
  %1 = alloca i32, align 4
  %2 = alloca [501 x i8], align 16
  %3 = alloca [501 x i8], align 16
  %4 = alloca double, align 8
  %5 = alloca double, align 8
  %6 = alloca double, align 8
  %7 = alloca double, align 8
  %8 = alloca i32, align 4
  %9 = alloca i32, align 4
  store i32 0, i32* %1, align 4
  store double 0.000000e+00, double* %7, align 8
  store i32 1, i32* %9, align 4
  %10 = call i32 (i8*, ...) @__isoc99_scanf(i8* getelementptr inbounds ([4 x i8], [4 x i8]* @.str, i64 0, i64 0), double* %4)
  %11 = call i32 (i8*, ...) @__isoc99_scanf(i8* getelementptr inbounds ([6 x i8], [6 x i8]* @.str.1, i64 0, i64 0), [501 x i8]* %2, [501 x i8]* %3)
  %12 = getelementptr inbounds [501 x i8], [501 x i8]* %2, i64 0, i64 0
  %13 = call i64 @strlen(i8* %12) #3
  %14 = uitofp i64 %13 to double
  store double %14, double* %5, align 8
  %15 = getelementptr inbounds [501 x i8], [501 x i8]* %3, i64 0, i64 0
  %16 = call i64 @strlen(i8* %15) #3
  %17 = uitofp i64 %16 to double
  store double %17, double* %6, align 8
  %18 = load double, double* %5, align 8
  %19 = load double, double* %6, align 8
  %20 = fcmp une double %18, %19
  br i1 %20, label %21, label %23

21:                                               ; preds = %0
  %22 = call i32 (i8*, ...) @printf(i8* getelementptr inbounds ([6 x i8], [6 x i8]* @.str.2, i64 0, i64 0))
  br label %141

23:                                               ; preds = %0
  %24 = load double, double* %5, align 8
  %25 = load double, double* %6, align 8
  %26 = fcmp oeq double %24, %25
  br i1 %26, label %27, label %140

27:                                               ; preds = %23
  store i32 0, i32* %8, align 4
  br label %28

28:                                               ; preds = %107, %27
  %29 = load i32, i32* %8, align 4
  %30 = sitofp i32 %29 to double
  %31 = load double, double* %5, align 8
  %32 = fcmp olt double %30, %31
  br i1 %32, label %33, label %110

33:                                               ; preds = %28
  %34 = load i32, i32* %8, align 4
  %35 = sext i32 %34 to i64
  %36 = getelementptr inbounds [501 x i8], [501 x i8]* %2, i64 0, i64 %35
  %37 = load i8, i8* %36, align 1
  %38 = sext i8 %37 to i32
  %39 = icmp ne i32 %38, 65
  br i1 %39, label %40, label %61

40:                                               ; preds = %33
  %41 = load i32, i32* %8, align 4
  %42 = sext i32 %41 to i64
  %43 = getelementptr inbounds [501 x i8], [501 x i8]* %2, i64 0, i64 %42
  %44 = load i8, i8* %43, align 1
  %45 = sext i8 %44 to i32
  %46 = icmp ne i32 %45, 84
  br i1 %46, label %47, label %61

47:                                               ; preds = %40
  %48 = load i32, i32* %8, align 4
  %49 = sext i32 %48 to i64
  %50 = getelementptr inbounds [501 x i8], [501 x i8]* %2, i64 0, i64 %49
  %51 = load i8, i8* %50, align 1
  %52 = sext i8 %51 to i32
  %53 = icmp ne i32 %52, 71
  br i1 %53, label %54, label %61

54:                                               ; preds = %47
  %55 = load i32, i32* %8, align 4
  %56 = sext i32 %55 to i64
  %57 = getelementptr inbounds [501 x i8], [501 x i8]* %2, i64 0, i64 %56
  %58 = load i8, i8* %57, align 1
  %59 = sext i8 %58 to i32
  %60 = icmp ne i32 %59, 67
  br i1 %60, label %89, label %61

61:                                               ; preds = %54, %47, %40, %33
  %62 = load i32, i32* %8, align 4
  %63 = sext i32 %62 to i64
  %64 = getelementptr inbounds [501 x i8], [501 x i8]* %3, i64 0, i64 %63
  %65 = load i8, i8* %64, align 1
  %66 = sext i8 %65 to i32
  %67 = icmp ne i32 %66, 65
  br i1 %67, label %68, label %90

68:                                               ; preds = %61
  %69 = load i32, i32* %8, align 4
  %70 = sext i32 %69 to i64
  %71 = getelementptr inbounds [501 x i8], [501 x i8]* %3, i64 0, i64 %70
  %72 = load i8, i8* %71, align 1
  %73 = sext i8 %72 to i32
  %74 = icmp ne i32 %73, 84
  br i1 %74, label %75, label %90

75:                                               ; preds = %68
  %76 = load i32, i32* %8, align 4
  %77 = sext i32 %76 to i64
  %78 = getelementptr inbounds [501 x i8], [501 x i8]* %3, i64 0, i64 %77
  %79 = load i8, i8* %78, align 1
  %80 = sext i8 %79 to i32
  %81 = icmp ne i32 %80, 71
  br i1 %81, label %82, label %90

82:                                               ; preds = %75
  %83 = load i32, i32* %8, align 4
  %84 = sext i32 %83 to i64
  %85 = getelementptr inbounds [501 x i8], [501 x i8]* %3, i64 0, i64 %84
  %86 = load i8, i8* %85, align 1
  %87 = sext i8 %86 to i32
  %88 = icmp ne i32 %87, 67
  br i1 %88, label %89, label %90

89:                                               ; preds = %82, %54
  store i32 0, i32* %9, align 4
  br label %110

90:                                               ; preds = %82, %75, %68, %61
  %91 = load i32, i32* %8, align 4
  %92 = sext i32 %91 to i64
  %93 = getelementptr inbounds [501 x i8], [501 x i8]* %2, i64 0, i64 %92
  %94 = load i8, i8* %93, align 1
  %95 = sext i8 %94 to i32
  %96 = load i32, i32* %8, align 4
  %97 = sext i32 %96 to i64
  %98 = getelementptr inbounds [501 x i8], [501 x i8]* %3, i64 0, i64 %97
  %99 = load i8, i8* %98, align 1
  %100 = sext i8 %99 to i32
  %101 = icmp eq i32 %95, %100
  br i1 %101, label %102, label %105

102:                                              ; preds = %90
  %103 = load double, double* %7, align 8
  %104 = fadd double %103, 1.000000e+00
  store double %104, double* %7, align 8
  br label %105

105:                                              ; preds = %102, %90
  br label %106

106:                                              ; preds = %105
  br label %107

107:                                              ; preds = %106
  %108 = load i32, i32* %8, align 4
  %109 = add nsw i32 %108, 1
  store i32 %109, i32* %8, align 4
  br label %28

110:                                              ; preds = %89, %28
  %111 = load i32, i32* %9, align 4
  %112 = icmp eq i32 %111, 0
  br i1 %112, label %113, label %115

113:                                              ; preds = %110
  %114 = call i32 (i8*, ...) @printf(i8* getelementptr inbounds ([6 x i8], [6 x i8]* @.str.2, i64 0, i64 0))
  br label %139

115:                                              ; preds = %110
  %116 = load double, double* %7, align 8
  %117 = fcmp une double %116, 0.000000e+00
  br i1 %117, label %118, label %126

118:                                              ; preds = %115
  %119 = load double, double* %7, align 8
  %120 = load double, double* %5, align 8
  %121 = fdiv double %119, %120
  %122 = load double, double* %4, align 8
  %123 = fcmp oge double %121, %122
  br i1 %123, label %124, label %126

124:                                              ; preds = %118
  %125 = call i32 (i8*, ...) @printf(i8* getelementptr inbounds ([4 x i8], [4 x i8]* @.str.3, i64 0, i64 0))
  br label %138

126:                                              ; preds = %118, %115
  %127 = load i32, i32* %9, align 4
  %128 = icmp eq i32 %127, 1
  br i1 %128, label %129, label %137

129:                                              ; preds = %126
  %130 = load double, double* %7, align 8
  %131 = load double, double* %5, align 8
  %132 = fdiv double %130, %131
  %133 = load double, double* %4, align 8
  %134 = fcmp olt double %132, %133
  br i1 %134, label %135, label %137

135:                                              ; preds = %129
  %136 = call i32 (i8*, ...) @printf(i8* getelementptr inbounds ([3 x i8], [3 x i8]* @.str.4, i64 0, i64 0))
  br label %137

137:                                              ; preds = %135, %129, %126
  br label %138

138:                                              ; preds = %137, %124
  br label %139

139:                                              ; preds = %138, %113
  br label %140

140:                                              ; preds = %139, %23
  br label %141

141:                                              ; preds = %140, %21
  ret i32 0
}

declare dso_local i32 @__isoc99_scanf(i8*, ...) #1

; Function Attrs: nounwind readonly
declare dso_local i64 @strlen(i8*) #2

declare dso_local i32 @printf(i8*, ...) #1


!llvm.module.flags = !{!0}
!llvm.ident = !{!1}

!0 = !{i32 1, !"wchar_size", i32 4}
!1 = !{!"clang version 10.0.0-4ubuntu1 "}
